target datalayout = "e-m:e-p270:32:32-p271:32:32-p272:64:64-i64:64-i128:128-f80:128-n8:16:32:64-S128"
target triple = "x86_64-pc-linux-gnu"

%class.btManifoldResult = type <{ %"struct.btDiscreteCollisionDetectorInterface::Result", ptr, ptr, ptr, i32, i32, i32, i32, float, [4 x i8] }>
%"struct.btDiscreteCollisionDetectorInterface::Result" = type { ptr }

; Function Attrs: inlinehint mustprogress nounwind uwtable
define linkonce_odr dso_local void @_ZN36btDiscreteCollisionDetectorInterface6ResultC2Ev(ptr noundef nonnull align 8 dereferenceable(8) %0) unnamed_addr #5 comdat align 2 {
  %2 = alloca ptr, align 8
  store ptr %0, ptr %2, align 8, !tbaa !49
  %3 = load ptr, ptr %2, align 8
  store ptr getelementptr inbounds inrange(-16, 40) ({ [7 x ptr] }, ptr @_ZTVN36btDiscreteCollisionDetectorInterface6ResultE, i32 0, i32 0, i32 2), ptr %3, align 8, !tbaa !36
  ret void
}

; Function Attrs: mustprogress nounwind uwtable
define dso_local void @_ZN16btManifoldResultC2EPK24btCollisionObjectWrapperS2_(ptr noundef nonnull align 8 dereferenceable(52) %0, ptr noundef %1, ptr noundef %2) unnamed_addr #1 align 2 {
  %4 = alloca ptr, align 8
  %5 = alloca ptr, align 8
  %6 = alloca ptr, align 8
  store ptr %0, ptr %4, align 8, !tbaa !32
  store ptr %1, ptr %5, align 8, !tbaa !34
  store ptr %2, ptr %6, align 8, !tbaa !34
  %7 = load ptr, ptr %4, align 8
  call void @_ZN36btDiscreteCollisionDetectorInterface6ResultC2Ev(ptr noundef nonnull align 8 dereferenceable(8) %7) #14
  store ptr getelementptr inbounds inrange(-16, 40) ({ [7 x ptr] }, ptr @_ZTV16btManifoldResult, i32 0, i32 0, i32 2), ptr %7, align 8, !tbaa !36
  %8 = getelementptr inbounds nuw %class.btManifoldResult, ptr %7, i32 0, i32 1
  store ptr null, ptr %8, align 8, !tbaa !38
  %9 = getelementptr inbounds nuw %class.btManifoldResult, ptr %7, i32 0, i32 2
  %10 = load ptr, ptr %5, align 8, !tbaa !34
  store ptr %10, ptr %9, align 8, !tbaa !42
  %11 = getelementptr inbounds nuw %class.btManifoldResult, ptr %7, i32 0, i32 3
  %12 = load ptr, ptr %6, align 8, !tbaa !34
  store ptr %12, ptr %11, align 8, !tbaa !43
  %13 = getelementptr inbounds nuw %class.btManifoldResult, ptr %7, i32 0, i32 4
  store i32 -1, ptr %13, align 8, !tbaa !44
  %14 = getelementptr inbounds nuw %class.btManifoldResult, ptr %7, i32 0, i32 5
  store i32 -1, ptr %14, align 4, !tbaa !45
  %15 = getelementptr inbounds nuw %class.btManifoldResult, ptr %7, i32 0, i32 6
  store i32 -1, ptr %15, align 8, !tbaa !46
  %16 = getelementptr inbounds nuw %class.btManifoldResult, ptr %7, i32 0, i32 7
  store i32 -1, ptr %16, align 4, !tbaa !47
  %17 = getelementptr inbounds nuw %class.btManifoldResult, ptr %7, i32 0, i32 8
  store float 0.000000e+00, ptr %17, align 8, !tbaa !48
  ret void
}