; Function Attrs: mustprogress nofree norecurse nosync nounwind willreturn memory(argmem: write) uwtable
define dso_local void @_ZN16btManifoldResultC2EPK24btCollisionObjectWrapperS2_(ptr noundef nonnull writeonly align 8 captures(none) dereferenceable(52) initializes((0, 52)) %0, ptr noundef %1, ptr noundef %2) unnamed_addr #3 align 2 {
  store ptr getelementptr inbounds nuw inrange(-16, 40) (i8, ptr @_ZTV16btManifoldResult, i64 16), ptr %0, align 8, !tbaa !25
  %4 = getelementptr inbounds nuw i8, ptr %0, i64 8
  store ptr null, ptr %4, align 8, !tbaa !27
  %5 = getelementptr inbounds nuw i8, ptr %0, i64 16
  store ptr %1, ptr %5, align 8, !tbaa !32
  %6 = getelementptr inbounds nuw i8, ptr %0, i64 24
  store ptr %2, ptr %6, align 8, !tbaa !33
  %7 = getelementptr inbounds nuw i8, ptr %0, i64 32
  %8 = getelementptr inbounds nuw i8, ptr %0, i64 48
  tail call void @llvm.memset.p0.i64(ptr noundef nonnull align 8 dereferenceable(16) %7, i8 -1, i64 16, i1 false)
  store float 0.000000e+00, ptr %8, align 8, !tbaa !34
  ret void
}